target datalayout = "e-m:e-p270:32:32-p271:32:32-p272:64:64-i64:64-i128:128-f80:128-n8:16:32:64-S128"
target triple = "x86_64-pc-linux-gnu"

%struct.anon.24 = type { i32, ptr }
%struct.__sigset_t = type { [16 x i64] }
%struct.sigaction = type { %union.anon.16, %struct.__sigset_t, i32, ptr }
%union.anon.16 = type { ptr }

@.str.168 = private unnamed_addr constant [8 x i8] c"SIG_DFL\00", align 1
@.str.169 = private unnamed_addr constant [8 x i8] c"SIG_IGN\00", align 1
@.str.170 = private unnamed_addr constant [8 x i8] c", mask=\00", align 1
@.str.171 = private unnamed_addr constant [9 x i8] c", flags=\00", align 1
@.str.172 = private unnamed_addr constant [3 x i8] c"%s\00", align 1
@.str.173 = private unnamed_addr constant [5 x i8] c"none\00", align 1
@.str.182 = private unnamed_addr constant [4 x i8] c"|%s\00", align 1
@.str.183 = private unnamed_addr constant [18 x i8] c"|Unknown_flags:%x\00", align 1

; Function Attrs: mustprogress nounwind uwtable
define internal noundef ptr @_ZL17describe_sa_flagsiPcm(i32 noundef %0, ptr noundef %1, i64 noundef %2) #1 {
  %4 = alloca ptr, align 8
  %5 = alloca i32, align 4
  %6 = alloca ptr, align 8
  %7 = alloca i64, align 8
  %8 = alloca ptr, align 8
  %9 = alloca i64, align 8
  %10 = alloca i8, align 1
  %11 = alloca i32, align 4
  %12 = alloca i32, align 4
  %13 = alloca [8 x %struct.anon.24], align 16
  %14 = alloca i64, align 8
  %15 = alloca i32, align 4
  store i32 %0, ptr %5, align 4
  store ptr %1, ptr %6, align 8
  store i64 %2, ptr %7, align 8
  %16 = load ptr, ptr %6, align 8
  store ptr %16, ptr %8, align 8
  %17 = load i64, ptr %7, align 8
  store i64 %17, ptr %9, align 8
  store i8 1, ptr %10, align 1
  store i32 0, ptr %11, align 4
  %18 = load i64, ptr %7, align 8
  %19 = icmp eq i64 %18, 0
  br i1 %19, label %20, label %22

20:                                               ; preds = %3
  %21 = load ptr, ptr %6, align 8
  store ptr %21, ptr %4, align 8
  br label %97

22:                                               ; preds = %3
  %23 = load ptr, ptr %6, align 8
  %24 = load i64, ptr %7, align 8
  %25 = call ptr @strncpy(ptr noundef %23, ptr noundef @.str.173, i64 noundef %24) #2
  store i32 -1476395016, ptr %12, align 4
  call void @llvm.memcpy.p0.p0.i64(ptr align 16 %13, ptr align 16 @__const._ZL17describe_sa_flagsiPcm.flaginfo, i64 128, i1 false)
  store i32 0, ptr %11, align 4
  br label %26

26:                                               ; preds = %78, %22
  %27 = load i32, ptr %11, align 4
  %28 = sext i32 %27 to i64
  %29 = getelementptr inbounds [8 x %struct.anon.24], ptr %13, i64 0, i64 %28
  %30 = getelementptr inbounds %struct.anon.24, ptr %29, i32 0, i32 0
  %31 = load i32, ptr %30, align 16
  %32 = icmp ne i32 %31, -1476395016
  br i1 %32, label %33, label %36

33:                                               ; preds = %26
  %34 = load i64, ptr %9, align 8
  %35 = icmp ugt i64 %34, 1
  br label %36

36:                                               ; preds = %33, %26
  %37 = phi i1 [ false, %26 ], [ %35, %33 ]
  br i1 %37, label %38, label %81

38:                                               ; preds = %36
  %39 = load i32, ptr %5, align 4
  %40 = load i32, ptr %11, align 4
  %41 = sext i32 %40 to i64
  %42 = getelementptr inbounds [8 x %struct.anon.24], ptr %13, i64 0, i64 %41
  %43 = getelementptr inbounds %struct.anon.24, ptr %42, i32 0, i32 0
  %44 = load i32, ptr %43, align 16
  %45 = and i32 %39, %44
  %46 = icmp ne i32 %45, 0
  br i1 %46, label %47, label %77

47:                                               ; preds = %38
  %48 = load i8, ptr %10, align 1
  %49 = trunc i8 %48 to i1
  br i1 %49, label %50, label %59

50:                                               ; preds = %47
  %51 = load ptr, ptr %8, align 8
  %52 = load i64, ptr %9, align 8
  %53 = load i32, ptr %11, align 4
  %54 = sext i32 %53 to i64
  %55 = getelementptr inbounds [8 x %struct.anon.24], ptr %13, i64 0, i64 %54
  %56 = getelementptr inbounds %struct.anon.24, ptr %55, i32 0, i32 1
  %57 = load ptr, ptr %56, align 8
  %58 = call i32 (ptr, i64, ptr, ...) @jio_snprintf(ptr noundef %51, i64 noundef %52, ptr noundef @.str.172, ptr noundef %57)
  store i8 0, ptr %10, align 1
  br label %68

59:                                               ; preds = %47
  %60 = load ptr, ptr %8, align 8
  %61 = load i64, ptr %9, align 8
  %62 = load i32, ptr %11, align 4
  %63 = sext i32 %62 to i64
  %64 = getelementptr inbounds [8 x %struct.anon.24], ptr %13, i64 0, i64 %63
  %65 = getelementptr inbounds %struct.anon.24, ptr %64, i32 0, i32 1
  %66 = load ptr, ptr %65, align 8
  %67 = call i32 (ptr, i64, ptr, ...) @jio_snprintf(ptr noundef %60, i64 noundef %61, ptr noundef @.str.182, ptr noundef %66)
  br label %68

68:                                               ; preds = %59, %50
  %69 = load ptr, ptr %8, align 8
  %70 = call i64 @strlen(ptr noundef %69) #14
  store i64 %70, ptr %14, align 8
  %71 = load i64, ptr %14, align 8
  %72 = load ptr, ptr %8, align 8
  %73 = getelementptr inbounds i8, ptr %72, i64 %71
  store ptr %73, ptr %8, align 8
  %74 = load i64, ptr %14, align 8
  %75 = load i64, ptr %9, align 8
  %76 = sub i64 %75, %74
  store i64 %76, ptr %9, align 8
  br label %77

77:                                               ; preds = %68, %38
  br label %78

78:                                               ; preds = %77
  %79 = load i32, ptr %11, align 4
  %80 = add nsw i32 %79, 1
  store i32 %80, ptr %11, align 4
  br label %26, !llvm.loop !19

81:                                               ; preds = %36
  %82 = load i32, ptr %5, align 4
  %83 = and i32 %82, -1476395016
  store i32 %83, ptr %15, align 4
  %84 = load i32, ptr %15, align 4
  %85 = icmp ne i32 %84, 0
  br i1 %85, label %86, label %91

86:                                               ; preds = %81
  %87 = load ptr, ptr %8, align 8
  %88 = load i64, ptr %9, align 8
  %89 = load i32, ptr %15, align 4
  %90 = call i32 (ptr, i64, ptr, ...) @jio_snprintf(ptr noundef %87, i64 noundef %88, ptr noundef @.str.183, i32 noundef %89)
  br label %91

91:                                               ; preds = %86, %81
  %92 = load ptr, ptr %6, align 8
  %93 = load i64, ptr %7, align 8
  %94 = sub i64 %93, 1
  %95 = getelementptr inbounds i8, ptr %92, i64 %94
  store i8 0, ptr %95, align 1
  %96 = load ptr, ptr %6, align 8
  store ptr %96, ptr %4, align 8
  br label %97

97:                                               ; preds = %91, %20
  %98 = load ptr, ptr %4, align 8
  ret ptr %98
}

; Function Attrs: mustprogress nounwind uwtable
define internal noundef ptr @_ZL25describe_signal_set_shortPK10__sigset_tPcm(ptr noundef %0, ptr noundef %1, i64 noundef %2) #1 {
  %4 = alloca ptr, align 8
  %5 = alloca ptr, align 8
  %6 = alloca i64, align 8
  %7 = alloca i32, align 4
  %8 = alloca i32, align 4
  store ptr %0, ptr %4, align 8
  store ptr %1, ptr %5, align 8
  store i64 %2, ptr %6, align 8
  store i32 1, ptr %7, align 4
  br label %9

9:                                                ; preds = %38, %3
  %10 = load i32, ptr %7, align 4
  %11 = icmp sle i32 %10, 32
  br i1 %11, label %12, label %41

12:                                               ; preds = %9
  %13 = load ptr, ptr %4, align 8
  %14 = load i32, ptr %7, align 4
  %15 = call i32 @sigismember(ptr noundef %13, i32 noundef %14) #2
  store i32 %15, ptr %8, align 4
  %16 = load i32, ptr %8, align 4
  %17 = icmp eq i32 %16, -1
  br i1 %17, label %18, label %28

18:                                               ; preds = %12
  %19 = call ptr @__errno_location() #13
  %20 = load i32, ptr %19, align 4
  %21 = icmp eq i32 %20, 22
  br i1 %21, label %22, label %28

22:                                               ; preds = %18
  %23 = load ptr, ptr %5, align 8
  %24 = load i32, ptr %7, align 4
  %25 = sub nsw i32 %24, 1
  %26 = sext i32 %25 to i64
  %27 = getelementptr inbounds i8, ptr %23, i64 %26
  store i8 63, ptr %27, align 1
  br label %37

28:                                               ; preds = %18, %12
  %29 = load i32, ptr %8, align 4
  %30 = icmp eq i32 %29, 0
  %31 = select i1 %30, i8 48, i8 49
  %32 = load ptr, ptr %5, align 8
  %33 = load i32, ptr %7, align 4
  %34 = sub nsw i32 %33, 1
  %35 = sext i32 %34 to i64
  %36 = getelementptr inbounds i8, ptr %32, i64 %35
  store i8 %31, ptr %36, align 1
  br label %37

37:                                               ; preds = %28, %22
  br label %38

38:                                               ; preds = %37
  %39 = load i32, ptr %7, align 4
  %40 = add nsw i32 %39, 1
  store i32 %40, ptr %7, align 4
  br label %9, !llvm.loop !18

41:                                               ; preds = %9
  %42 = load ptr, ptr %5, align 8
  %43 = getelementptr inbounds i8, ptr %42, i64 32
  store i8 0, ptr %43, align 1
  %44 = load ptr, ptr %5, align 8
  ret ptr %44
}

; Function Attrs: mustprogress nounwind uwtable
define linkonce_odr hidden noundef i32 @_Z12checked_castIimET_T0_(i64 noundef %0) #1 comdat {
  %2 = alloca i64, align 8
  %3 = alloca i32, align 4
  store i64 %0, ptr %2, align 8
  %4 = load i64, ptr %2, align 8
  %5 = trunc i64 %4 to i32
  store i32 %5, ptr %3, align 4
  %6 = load i32, ptr %3, align 4
  ret i32 %6
}

; Function Attrs: mustprogress nounwind uwtable
define internal void @_ZL14print_sa_flagsP12outputStreami(ptr noundef %0, i32 noundef %1) #1 {
  %3 = alloca ptr, align 8
  %4 = alloca i32, align 4
  %5 = alloca [256 x i8], align 16
  store ptr %0, ptr %3, align 8
  store i32 %1, ptr %4, align 4
  %6 = load i32, ptr %4, align 4
  %7 = getelementptr inbounds [256 x i8], ptr %5, i64 0, i64 0
  %8 = call noundef ptr @_ZL17describe_sa_flagsiPcm(i32 noundef %6, ptr noundef %7, i64 noundef 256)
  %9 = load ptr, ptr %3, align 8
  %10 = getelementptr inbounds [256 x i8], ptr %5, i64 0, i64 0
  call void (ptr, ptr, ...) @_ZN12outputStream5printEPKcz(ptr noundef nonnull align 8 dereferenceable(56) %9, ptr noundef @.str.172, ptr noundef %10)
  ret void
}

; Function Attrs: mustprogress nounwind uwtable
define internal noundef i32 @_ZL22get_sanitized_sa_flagsPK9sigaction(ptr noundef %0) #1 {
  %2 = alloca ptr, align 8
  %3 = alloca i32, align 4
  %4 = alloca i32, align 4
  store ptr %0, ptr %2, align 8
  %5 = load ptr, ptr %2, align 8
  %6 = getelementptr inbounds %struct.sigaction, ptr %5, i32 0, i32 2
  %7 = load i32, ptr %6, align 8
  store i32 %7, ptr %3, align 4
  store i32 67108864, ptr %4, align 4
  %8 = load i32, ptr %3, align 4
  %9 = and i32 %8, -67108865
  store i32 %9, ptr %3, align 4
  %10 = load i32, ptr %3, align 4
  ret i32 %10
}

; Function Attrs: mustprogress nounwind uwtable
define internal void @_ZL22print_signal_set_shortP12outputStreamPK10__sigset_t(ptr noundef %0, ptr noundef %1) #1 {
  %3 = alloca ptr, align 8
  %4 = alloca ptr, align 8
  %5 = alloca [33 x i8], align 16
  store ptr %0, ptr %3, align 8
  store ptr %1, ptr %4, align 8
  %6 = load ptr, ptr %4, align 8
  %7 = getelementptr inbounds [33 x i8], ptr %5, i64 0, i64 0
  %8 = call noundef ptr @_ZL25describe_signal_set_shortPK10__sigset_tPcm(ptr noundef %6, ptr noundef %7, i64 noundef 33)
  %9 = load ptr, ptr %3, align 8
  %10 = getelementptr inbounds [33 x i8], ptr %5, i64 0, i64 0
  call void (ptr, ptr, ...) @_ZN12outputStream5printEPKcz(ptr noundef nonnull align 8 dereferenceable(56) %9, ptr noundef @.str.172, ptr noundef %10)
  ret void
}

; Function Attrs: mustprogress nounwind uwtable
define internal void @_ZL25print_signal_handler_nameP12outputStreamPhPcm(ptr noundef %0, ptr noundef %1, ptr noundef %2, i64 noundef %3) #1 {
  %5 = alloca ptr, align 8
  %6 = alloca ptr, align 8
  %7 = alloca ptr, align 8
  %8 = alloca i64, align 8
  store ptr %0, ptr %5, align 8
  store ptr %1, ptr %6, align 8
  store ptr %2, ptr %7, align 8
  store i64 %3, ptr %8, align 8
  %9 = load ptr, ptr %5, align 8
  %10 = load ptr, ptr %6, align 8
  %11 = load ptr, ptr %7, align 8
  %12 = load i64, ptr %8, align 8
  %13 = call noundef i32 @_Z12checked_castIimET_T0_(i64 noundef %12)
  %14 = call noundef zeroext i1 @_ZN2os31print_function_and_library_nameEP12outputStreamPhPcibbb(ptr noundef %9, ptr noundef %10, ptr noundef %11, i32 noundef %13, i1 noundef zeroext true, i1 noundef zeroext true, i1 noundef zeroext true)
  ret void
}

; Function Attrs: mustprogress nounwind uwtable
define internal noundef ptr @_ZL18get_signal_handlerPK9sigaction(ptr noundef %0) #1 {
  %2 = alloca ptr, align 8
  %3 = alloca ptr, align 8
  %4 = alloca i8, align 1
  store ptr %0, ptr %3, align 8
  %5 = load ptr, ptr %3, align 8
  %6 = getelementptr inbounds %struct.sigaction, ptr %5, i32 0, i32 2
  %7 = load i32, ptr %6, align 8
  %8 = and i32 %7, 4
  %9 = icmp ne i32 %8, 0
  %10 = zext i1 %9 to i8
  store i8 %10, ptr %4, align 1
  %11 = load i8, ptr %4, align 1
  %12 = trunc i8 %11 to i1
  br i1 %12, label %13, label %19

13:                                               ; preds = %1
  %14 = load ptr, ptr %3, align 8
  %15 = getelementptr inbounds %struct.sigaction, ptr %14, i32 0, i32 0
  %16 = load ptr, ptr %15, align 8
  %17 = ptrtoint ptr %16 to i64
  %18 = inttoptr i64 %17 to ptr
  store ptr %18, ptr %2, align 8
  br label %25

19:                                               ; preds = %1
  %20 = load ptr, ptr %3, align 8
  %21 = getelementptr inbounds %struct.sigaction, ptr %20, i32 0, i32 0
  %22 = load ptr, ptr %21, align 8
  %23 = ptrtoint ptr %22 to i64
  %24 = inttoptr i64 %23 to ptr
  store ptr %24, ptr %2, align 8
  br label %25

25:                                               ; preds = %19, %13
  %26 = load ptr, ptr %2, align 8
  ret ptr %26
}

; Function Attrs: mustprogress nounwind uwtable
define internal void @_ZL27print_single_signal_handlerP12outputStreamPK9sigactionPcm(ptr noundef %0, ptr noundef %1, ptr noundef %2, i64 noundef %3) #1 {
  %5 = alloca ptr, align 8
  %6 = alloca ptr, align 8
  %7 = alloca ptr, align 8
  %8 = alloca i64, align 8
  %9 = alloca ptr, align 8
  %10 = alloca i32, align 4
  store ptr %0, ptr %5, align 8
  store ptr %1, ptr %6, align 8
  store ptr %2, ptr %7, align 8
  store i64 %3, ptr %8, align 8
  %11 = load ptr, ptr %6, align 8
  %12 = call noundef ptr @_ZL18get_signal_handlerPK9sigaction(ptr noundef %11)
  store ptr %12, ptr %9, align 8
  %13 = load ptr, ptr %9, align 8
  %14 = icmp eq ptr %13, null
  br i1 %14, label %15, label %17

15:                                               ; preds = %4
  %16 = load ptr, ptr %5, align 8
  call void (ptr, ptr, ...) @_ZN12outputStream5printEPKcz(ptr noundef nonnull align 8 dereferenceable(56) %16, ptr noundef @.str.168)
  br label %28

17:                                               ; preds = %4
  %18 = load ptr, ptr %9, align 8
  %19 = icmp eq ptr %18, inttoptr (i64 1 to ptr)
  br i1 %19, label %20, label %22

20:                                               ; preds = %17
  %21 = load ptr, ptr %5, align 8
  call void (ptr, ptr, ...) @_ZN12outputStream5printEPKcz(ptr noundef nonnull align 8 dereferenceable(56) %21, ptr noundef @.str.169)
  br label %27

22:                                               ; preds = %17
  %23 = load ptr, ptr %5, align 8
  %24 = load ptr, ptr %9, align 8
  %25 = load ptr, ptr %7, align 8
  %26 = load i64, ptr %8, align 8
  call void @_ZL25print_signal_handler_nameP12outputStreamPhPcm(ptr noundef %23, ptr noundef %24, ptr noundef %25, i64 noundef %26)
  br label %27

27:                                               ; preds = %22, %20
  br label %28

28:                                               ; preds = %27, %15
  %29 = load ptr, ptr %5, align 8
  call void (ptr, ptr, ...) @_ZN12outputStream5printEPKcz(ptr noundef nonnull align 8 dereferenceable(56) %29, ptr noundef @.str.170)
  %30 = load ptr, ptr %5, align 8
  %31 = load ptr, ptr %6, align 8
  %32 = getelementptr inbounds %struct.sigaction, ptr %31, i32 0, i32 1
  call void @_ZL22print_signal_set_shortP12outputStreamPK10__sigset_t(ptr noundef %30, ptr noundef %32)
  %33 = load ptr, ptr %5, align 8
  call void (ptr, ptr, ...) @_ZN12outputStream5printEPKcz(ptr noundef nonnull align 8 dereferenceable(56) %33, ptr noundef @.str.171)
  %34 = load ptr, ptr %6, align 8
  %35 = call noundef i32 @_ZL22get_sanitized_sa_flagsPK9sigaction(ptr noundef %34)
  store i32 %35, ptr %10, align 4
  %36 = load ptr, ptr %5, align 8
  %37 = load i32, ptr %10, align 4
  call void @_ZL14print_sa_flagsP12outputStreami(ptr noundef %36, i32 noundef %37)
  ret void
}